ccopy_reg
_reconstructor
p0
(cgoogle.oauth2.credentials
Credentials
p1
c__builtin__
object
p2
Ntp3
Rp4
(dp5
S'_token_uri'
p6
Vhttps://oauth2.googleapis.com/token
p7
sS'_scopes'
p8
(lp9
S'https://www.googleapis.com/auth/spreadsheets'
p10
asS'_id_token'
p11
NsS'token'
p12
Vya29.Gl26Bp2yt0v1AqcJgMmloWoqQR4fNCat30xGXGdX9jwPXBkkoRkrslqelwQdwswdde7yslo9tmWd5ItGo5s7pDFgzEfO8FyjCzYwiU3U94kJUT7RaJHgSOgtsmlKBYE
p13
sS'_refresh_token'
p14
V1/Ws5SRCFEASU9I3SsP16bgPgLs5cKn9v_DujDT6ZDOrQ
p15
sS'_client_secret'
p16
Vly3c0_vBXEh-QrqLLZ8aI9fU
p17
sS'_client_id'
p18
V597146496834-din4203e4mbbkmao2pn8825rktnjrl7u.apps.googleusercontent.com
p19
sS'expiry'
p20
cdatetime
datetime
p21
(S'\x07\xe3\x02\x18\t;\x1f\x0c\xdb)'
p22
tp23
Rp24
sb.