ccopy_reg
_reconstructor
p0
(cgoogle.oauth2.credentials
Credentials
p1
c__builtin__
object
p2
Ntp3
Rp4
(dp5
S'_token_uri'
p6
Vhttps://oauth2.googleapis.com/token
p7
sS'_client_secret'
p8
Vly3c0_vBXEh-QrqLLZ8aI9fU
p9
sS'_id_token'
p10
NsS'token'
p11
Vya29.GlubBnSwesq_tU3GcpytKCmPXTmTwsb9a2PU_4rXNbbxjlBV5nyK4_DuE92fOvF72hxUaeapybffBcVErQNMt31X3Oc181ujQwdVBwz620QOjWl3xHvq50nGIghQ
p12
sS'_refresh_token'
p13
V1/Ws5SRCFEASU9I3SsP16bgPgLs5cKn9v_DujDT6ZDOrQ
p14
sS'_scopes'
p15
(lp16
S'https://www.googleapis.com/auth/spreadsheets'
p17
asS'_client_id'
p18
V597146496834-din4203e4mbbkmao2pn8825rktnjrl7u.apps.googleusercontent.com
p19
sS'expiry'
p20
cdatetime
datetime
p21
(S'\x07\xe3\x01\x18\x13\x07 \r~G'
p22
tp23
Rp24
sb.