ccopy_reg
_reconstructor
p0
(cgoogle.oauth2.credentials
Credentials
p1
c__builtin__
object
p2
Ntp3
Rp4
(dp5
S'_token_uri'
p6
Vhttps://oauth2.googleapis.com/token
p7
sS'_scopes'
p8
(lp9
S'https://www.googleapis.com/auth/spreadsheets'
p10
asS'_id_token'
p11
NsS'token'
p12
Vya29.Gl20BgTI5aqlYCSofsg87FzaPoNyzBmx1jYP8qJIfBZvtM-Ppz4kRqwk4wdDN0GJajSgruhYjhawj4bx9sV1ABeIotPXM7HAj6_NKYO8B14GE-gw1U3Z2a_8DU6qDMw
p13
sS'_refresh_token'
p14
V1/Ws5SRCFEASU9I3SsP16bgPgLs5cKn9v_DujDT6ZDOrQ
p15
sS'_client_secret'
p16
Vly3c0_vBXEh-QrqLLZ8aI9fU
p17
sS'_client_id'
p18
V597146496834-din4203e4mbbkmao2pn8825rktnjrl7u.apps.googleusercontent.com
p19
sS'expiry'
p20
cdatetime
datetime
p21
(S'\x07\xe3\x02\x12\x07#\x1b\x0c\xc1\xfd'
p22
tp23
Rp24
sb.