ccopy_reg
_reconstructor
p0
(cgoogle.oauth2.credentials
Credentials
p1
c__builtin__
object
p2
Ntp3
Rp4
(dp5
S'_token_uri'
p6
Vhttps://oauth2.googleapis.com/token
p7
sS'_scopes'
p8
(lp9
S'https://www.googleapis.com/auth/spreadsheets'
p10
asS'_id_token'
p11
NsS'token'
p12
Vya29.GlxQB9GCemkbkpW-AXWyIAHnaLo8Z521__ihzstZ6elTNyi-YelDJb2v9yLjH7UpHVwigV9Qi9x9zesGYYOvCFoDe6PNbgMT3x2UxnaSbhGgDBTuF9q2ff-5q1Alcw
p13
sS'_refresh_token'
p14
V1/-kGs2pdt2oh8CP2JSSPSXK1Qz8uakvplnl_VTxQFfvg
p15
sS'_client_secret'
p16
Vly3c0_vBXEh-QrqLLZ8aI9fU
p17
sS'_client_id'
p18
V597146496834-din4203e4mbbkmao2pn8825rktnjrl7u.apps.googleusercontent.com
p19
sS'expiry'
p20
cdatetime
datetime
p21
(S'\x07\xe3\x07\x19\n8\x15\x02\x04r'
p22
tp23
Rp24
sb.