ccopy_reg
_reconstructor
p0
(cgoogle.oauth2.credentials
Credentials
p1
c__builtin__
object
p2
Ntp3
Rp4
(dp5
S'_token_uri'
p6
Vhttps://oauth2.googleapis.com/token
p7
sS'_client_secret'
p8
Vly3c0_vBXEh-QrqLLZ8aI9fU
p9
sS'_id_token'
p10
NsS'token'
p11
Vya29.GltWB-LHt2Rk9ByhQ2_VikegNqqo3UKIA13DDaWXoEh7auZTprrhxzz07JA8syg8Qdwq4jkNAVv_ru3tm2FgYKVm_KthxfMfR2I08v_rtT_bpeYbXj8OvBWmFQYQ
p12
sS'_refresh_token'
p13
V1/jF58piARc2fsudALIRVU5DDak9YQlKgphAFBnRYpSIY
p14
sS'_scopes'
p15
(lp16
S'https://www.googleapis.com/auth/spreadsheets'
p17
asS'_client_id'
p18
V597146496834-din4203e4mbbkmao2pn8825rktnjrl7u.apps.googleusercontent.com
p19
sS'expiry'
p20
cdatetime
datetime
p21
(S"\x07\xe3\x07\x1f\x0e\x0b'\x05\x9f\xd5"
p22
tp23
Rp24
sb.